target datalayout = "e-m:e-p270:32:32-p271:32:32-p272:64:64-i64:64-i128:128-f80:128-n8:16:32:64-S128"
target triple = "x86_64-pc-linux-gnu"

%"class.OpenSubdiv::v3_6_0::Bfr::RegularPatchBuilder" = type { ptr, i8, i32, i32, i32 }

; Function Attrs: mustprogress uwtable
define noundef i32 @_ZNK10OpenSubdiv6v3_6_03Bfr19RegularPatchBuilder26GatherControlVertexIndicesEPi(ptr noundef nonnull align 8 dereferenceable(24) %0, ptr noundef %1) #0 align 2 {
  %3 = alloca ptr, align 8
  %4 = alloca ptr, align 8
  store ptr %0, ptr %3, align 8
  store ptr %1, ptr %4, align 8
  %5 = load ptr, ptr %3, align 8
  %6 = getelementptr inbounds nuw %"class.OpenSubdiv::v3_6_0::Bfr::RegularPatchBuilder", ptr %5, i32 0, i32 1
  %7 = load i8, ptr %6, align 8
  %8 = and i8 %7, 1
  %9 = zext i8 %8 to i32
  %10 = icmp ne i32 %9, 0
  br i1 %10, label %11, label %23

11:                                               ; preds = %2
  %12 = getelementptr inbounds nuw %"class.OpenSubdiv::v3_6_0::Bfr::RegularPatchBuilder", ptr %5, i32 0, i32 1
  %13 = load i8, ptr %12, align 8
  %14 = lshr i8 %13, 1
  %15 = and i8 %14, 1
  %16 = zext i8 %15 to i32
  %17 = icmp ne i32 %16, 0
  br i1 %17, label %18, label %20

18:                                               ; preds = %11
  %19 = load ptr, ptr %4, align 8
  call void @_ZNK10OpenSubdiv6v3_6_03Bfr19RegularPatchBuilder26gatherBoundaryPatchPoints4EPi(ptr noundef nonnull align 8 dereferenceable(24) %5, ptr noundef %19)
  br label %22

20:                                               ; preds = %11
  %21 = load ptr, ptr %4, align 8
  call void @_ZNK10OpenSubdiv6v3_6_03Bfr19RegularPatchBuilder26gatherInteriorPatchPoints4EPi(ptr noundef nonnull align 8 dereferenceable(24) %5, ptr noundef %21)
  br label %22

22:                                               ; preds = %20, %18
  br label %35

23:                                               ; preds = %2
  %24 = getelementptr inbounds nuw %"class.OpenSubdiv::v3_6_0::Bfr::RegularPatchBuilder", ptr %5, i32 0, i32 1
  %25 = load i8, ptr %24, align 8
  %26 = lshr i8 %25, 1
  %27 = and i8 %26, 1
  %28 = zext i8 %27 to i32
  %29 = icmp ne i32 %28, 0
  br i1 %29, label %30, label %32

30:                                               ; preds = %23
  %31 = load ptr, ptr %4, align 8
  call void @_ZNK10OpenSubdiv6v3_6_03Bfr19RegularPatchBuilder26gatherBoundaryPatchPoints3EPi(ptr noundef nonnull align 8 dereferenceable(24) %5, ptr noundef %31)
  br label %34

32:                                               ; preds = %23
  %33 = load ptr, ptr %4, align 8
  call void @_ZNK10OpenSubdiv6v3_6_03Bfr19RegularPatchBuilder26gatherInteriorPatchPoints3EPi(ptr noundef nonnull align 8 dereferenceable(24) %5, ptr noundef %33)
  br label %34

34:                                               ; preds = %32, %30
  br label %35

35:                                               ; preds = %34, %22
  %36 = getelementptr inbounds nuw %"class.OpenSubdiv::v3_6_0::Bfr::RegularPatchBuilder", ptr %5, i32 0, i32 3
  %37 = load i32, ptr %36, align 8
  ret i32 %37
}