; Function Attrs: mustprogress nofree norecurse nosync nounwind memory(read, argmem: readwrite, inaccessiblemem: none) uwtable
define noundef i32 @_ZNK10OpenSubdiv6v3_6_03Bfr19RegularPatchBuilder26GatherControlVertexIndicesEPi(ptr noundef nonnull readonly align 8 captures(none) dereferenceable(24) %0, ptr noundef writeonly captures(none) %1) local_unnamed_addr #2 align 2 {
  %3 = getelementptr inbounds nuw i8, ptr %0, i64 8
  %4 = load i8, ptr %3, align 8
  %5 = and i8 %4, 1
  %.not = icmp eq i8 %5, 0
  %6 = and i8 %4, 2
  %.not5 = icmp eq i8 %6, 0
  br i1 %.not, label %10, label %7

7:                                                ; preds = %2
  br i1 %.not5, label %9, label %8

8:                                                ; preds = %7
  tail call void @_ZNK10OpenSubdiv6v3_6_03Bfr19RegularPatchBuilder26gatherBoundaryPatchPoints4EPi(ptr noundef nonnull align 8 dereferenceable(24) %0, ptr noundef %1)
  br label %13

9:                                                ; preds = %7
  tail call void @_ZNK10OpenSubdiv6v3_6_03Bfr19RegularPatchBuilder26gatherInteriorPatchPoints4EPi(ptr noundef nonnull align 8 dereferenceable(24) %0, ptr noundef %1)
  br label %13

10:                                               ; preds = %2
  br i1 %.not5, label %12, label %11

11:                                               ; preds = %10
  tail call void @_ZNK10OpenSubdiv6v3_6_03Bfr19RegularPatchBuilder26gatherBoundaryPatchPoints3EPi(ptr noundef nonnull align 8 dereferenceable(24) %0, ptr noundef %1)
  br label %13

12:                                               ; preds = %10
  tail call void @_ZNK10OpenSubdiv6v3_6_03Bfr19RegularPatchBuilder26gatherInteriorPatchPoints3EPi(ptr noundef nonnull align 8 dereferenceable(24) %0, ptr noundef %1)
  br label %13

13:                                               ; preds = %11, %12, %8, %9
  %14 = getelementptr inbounds nuw i8, ptr %0, i64 16
  %15 = load i32, ptr %14, align 8
  ret i32 %15
}